target datalayout = "e-m:e-p270:32:32-p271:32:32-p272:64:64-i64:64-i128:128-f80:128-n8:16:32:64-S128"
target triple = "x86_64-pc-linux-gnu"

%struct.pmix_object_t = type { %union.pthread_mutex_t, ptr, i32, %struct.pmix_tma }
%union.pthread_mutex_t = type { %struct.__pthread_mutex_s }
%struct.__pthread_mutex_s = type { i32, i32, i32, i32, i32, i16, i16, %struct.__pthread_internal_list }
%struct.__pthread_internal_list = type { ptr, ptr }
%struct.pmix_tma = type { ptr, ptr, ptr, ptr, ptr, ptr, ptr, ptr }
%struct.pmix_mca_base_framework_t = type { ptr, ptr, ptr, ptr, ptr, ptr, i32, i32, ptr, ptr, i32, i32, %struct.pmix_list_t, %struct.pmix_list_t }
%struct.pmix_list_t = type { %struct.pmix_object_t, %struct.pmix_list_item_t, i64 }
%struct.pmix_list_item_t = type { %struct.pmix_object_t, ptr, ptr, i32 }
%struct.pmix_output_desc_t = type { i8, i8, i32, i8, i32, ptr, ptr, i32, ptr, i32, i8, i8, i8, i8, ptr, i32, i32 }
%struct.pmix_buffer_t = type { %struct.pmix_object_t, i8, ptr, ptr, ptr, i64, i64 }

@pmix_bfrops_base_framework = external global %struct.pmix_mca_base_framework_t, align 8
@pmix_output_info = external global [0 x %struct.pmix_output_desc_t], align 8
@.str.5 = private unnamed_addr constant [31 x i8] c"pmix20_bfrop_unpack_byte * %d\0A\00", align 1

; Function Attrs: nounwind uwtable
define i32 @pmix20_bfrop_unpack_byte(ptr noundef %0, ptr noundef %1, ptr noundef %2, ptr noundef %3, i16 noundef zeroext %4) #0 {
  %6 = alloca i32, align 4
  %7 = alloca ptr, align 8
  %8 = alloca ptr, align 8
  %9 = alloca ptr, align 8
  %10 = alloca ptr, align 8
  %11 = alloca i16, align 2
  store ptr %0, ptr %7, align 8, !tbaa !13
  store ptr %1, ptr %8, align 8, !tbaa !3
  store ptr %2, ptr %9, align 8, !tbaa !3
  store ptr %3, ptr %10, align 8, !tbaa !7
  store i16 %4, ptr %11, align 2, !tbaa !9
  %12 = load i32, ptr getelementptr inbounds nuw (%struct.pmix_mca_base_framework_t, ptr @pmix_bfrops_base_framework, i32 0, i32 11), align 4, !tbaa !15
  %13 = icmp sge i32 %12, 0
  br i1 %13, label %14, label %28

14:                                               ; preds = %5
  %15 = load i32, ptr getelementptr inbounds nuw (%struct.pmix_mca_base_framework_t, ptr @pmix_bfrops_base_framework, i32 0, i32 11), align 4, !tbaa !15
  %16 = icmp slt i32 %15, 64
  br i1 %16, label %17, label %28

17:                                               ; preds = %14
  %18 = load i32, ptr getelementptr inbounds nuw (%struct.pmix_mca_base_framework_t, ptr @pmix_bfrops_base_framework, i32 0, i32 11), align 4, !tbaa !15
  %19 = sext i32 %18 to i64
  %20 = getelementptr inbounds [0 x %struct.pmix_output_desc_t], ptr @pmix_output_info, i64 0, i64 %19
  %21 = getelementptr inbounds nuw %struct.pmix_output_desc_t, ptr %20, i32 0, i32 2
  %22 = load i32, ptr %21, align 4, !tbaa !26
  %23 = icmp sge i32 %22, 20
  br i1 %23, label %24, label %28

24:                                               ; preds = %17
  %25 = load i32, ptr getelementptr inbounds nuw (%struct.pmix_mca_base_framework_t, ptr @pmix_bfrops_base_framework, i32 0, i32 11), align 4, !tbaa !15
  %26 = load ptr, ptr %10, align 8, !tbaa !7
  %27 = load i32, ptr %26, align 4, !tbaa !11
  call void (i32, ptr, ...) @pmix_output(i32 noundef %25, ptr noundef @.str.5, i32 noundef %27)
  br label %28

28:                                               ; preds = %24, %17, %14, %5
  %29 = load ptr, ptr %8, align 8, !tbaa !3
  %30 = load ptr, ptr %10, align 8, !tbaa !7
  %31 = load i32, ptr %30, align 4, !tbaa !11
  %32 = sext i32 %31 to i64
  %33 = call zeroext i1 @pmix_bfrop_too_small(ptr noundef %29, i64 noundef %32)
  br i1 %33, label %34, label %35

34:                                               ; preds = %28
  store i32 -50, ptr %6, align 4
  br label %50

35:                                               ; preds = %28
  %36 = load ptr, ptr %9, align 8, !tbaa !3
  %37 = load ptr, ptr %8, align 8, !tbaa !3
  %38 = getelementptr inbounds nuw %struct.pmix_buffer_t, ptr %37, i32 0, i32 4
  %39 = load ptr, ptr %38, align 8, !tbaa !37
  %40 = load ptr, ptr %10, align 8, !tbaa !7
  %41 = load i32, ptr %40, align 4, !tbaa !11
  %42 = sext i32 %41 to i64
  call void @llvm.memcpy.p0.p0.i64(ptr align 1 %36, ptr align 1 %39, i64 %42, i1 false)
  %43 = load ptr, ptr %10, align 8, !tbaa !7
  %44 = load i32, ptr %43, align 4, !tbaa !11
  %45 = load ptr, ptr %8, align 8, !tbaa !3
  %46 = getelementptr inbounds nuw %struct.pmix_buffer_t, ptr %45, i32 0, i32 4
  %47 = load ptr, ptr %46, align 8, !tbaa !37
  %48 = sext i32 %44 to i64
  %49 = getelementptr inbounds i8, ptr %47, i64 %48
  store ptr %49, ptr %46, align 8, !tbaa !37
  store i32 0, ptr %6, align 4
  br label %50

50:                                               ; preds = %35, %34
  %51 = load i32, ptr %6, align 4
  ret i32 %51
}

; Function Attrs: nounwind uwtable
define i32 @pmix20_bfrop_unpack_buf(ptr noundef %0, ptr noundef %1, ptr noundef %2, ptr noundef %3, i16 noundef zeroext %4) #0 {
  %6 = alloca i32, align 4
  %7 = alloca ptr, align 8
  %8 = alloca ptr, align 8
  %9 = alloca ptr, align 8
  %10 = alloca ptr, align 8
  %11 = alloca i16, align 2
  %12 = alloca ptr, align 8
  %13 = alloca i32, align 4
  %14 = alloca i32, align 4
  %15 = alloca i32, align 4
  %16 = alloca i32, align 4
  %17 = alloca i64, align 8
  %18 = alloca i32, align 4
  store ptr %0, ptr %7, align 8, !tbaa !13
  store ptr %1, ptr %8, align 8, !tbaa !3
  store ptr %2, ptr %9, align 8, !tbaa !3
  store ptr %3, ptr %10, align 8, !tbaa !7
  store i16 %4, ptr %11, align 2, !tbaa !9
  call void @llvm.lifetime.start.p0(i64 8, ptr %12) #11
  call void @llvm.lifetime.start.p0(i64 4, ptr %13) #11
  call void @llvm.lifetime.start.p0(i64 4, ptr %14) #11
  call void @llvm.lifetime.start.p0(i64 4, ptr %15) #11
  call void @llvm.lifetime.start.p0(i64 4, ptr %16) #11
  call void @llvm.lifetime.start.p0(i64 8, ptr %17) #11
  %19 = load ptr, ptr %9, align 8, !tbaa !3
  store ptr %19, ptr %12, align 8, !tbaa !3
  %20 = load ptr, ptr %10, align 8, !tbaa !7
  %21 = load i32, ptr %20, align 4, !tbaa !11
  store i32 %21, ptr %14, align 4, !tbaa !11
  store i32 0, ptr %13, align 4, !tbaa !11
  br label %22

22:                                               ; preds = %98, %5
  %23 = load i32, ptr %13, align 4, !tbaa !11
  %24 = load i32, ptr %14, align 4, !tbaa !11
  %25 = icmp slt i32 %23, %24
  br i1 %25, label %26, label %101

26:                                               ; preds = %22
  store i32 1, ptr %15, align 4, !tbaa !11
  %27 = load ptr, ptr %7, align 8, !tbaa !13
  %28 = load ptr, ptr %8, align 8, !tbaa !3
  %29 = call i32 @pmix20_bfrop_unpack_sizet(ptr noundef %27, ptr noundef %28, ptr noundef %17, ptr noundef %15, i16 noundef zeroext 4)
  store i32 %29, ptr %16, align 4, !tbaa !11
  %30 = icmp ne i32 0, %29
  br i1 %30, label %31, label %33

31:                                               ; preds = %26
  %32 = load i32, ptr %16, align 4, !tbaa !11
  store i32 %32, ptr %6, align 4
  store i32 1, ptr %18, align 4
  br label %102

33:                                               ; preds = %26
  %34 = load i64, ptr %17, align 8, !tbaa !54
  %35 = trunc i64 %34 to i32
  store i32 %35, ptr %15, align 4, !tbaa !11
  %36 = load i64, ptr %17, align 8, !tbaa !54
  %37 = icmp ult i64 0, %36
  br i1 %37, label %38, label %59

38:                                               ; preds = %33
  %39 = load i64, ptr %17, align 8, !tbaa !54
  %40 = call noalias ptr @malloc(i64 noundef %39) #14
  %41 = load ptr, ptr %12, align 8, !tbaa !3
  %42 = load i32, ptr %13, align 4, !tbaa !11
  %43 = sext i32 %42 to i64
  %44 = getelementptr inbounds %struct.pmix_buffer_t, ptr %41, i64 %43
  %45 = getelementptr inbounds nuw %struct.pmix_buffer_t, ptr %44, i32 0, i32 2
  store ptr %40, ptr %45, align 8, !tbaa !119
  %46 = load ptr, ptr %7, align 8, !tbaa !13
  %47 = load ptr, ptr %8, align 8, !tbaa !3
  %48 = load ptr, ptr %12, align 8, !tbaa !3
  %49 = load i32, ptr %13, align 4, !tbaa !11
  %50 = sext i32 %49 to i64
  %51 = getelementptr inbounds %struct.pmix_buffer_t, ptr %48, i64 %50
  %52 = getelementptr inbounds nuw %struct.pmix_buffer_t, ptr %51, i32 0, i32 2
  %53 = load ptr, ptr %52, align 8, !tbaa !119
  %54 = call i32 @pmix20_bfrop_unpack_byte(ptr noundef %46, ptr noundef %47, ptr noundef %53, ptr noundef %15, i16 noundef zeroext 2)
  store i32 %54, ptr %16, align 4, !tbaa !11
  %55 = icmp ne i32 0, %54
  br i1 %55, label %56, label %58

56:                                               ; preds = %38
  %57 = load i32, ptr %16, align 4, !tbaa !11
  store i32 %57, ptr %6, align 4
  store i32 1, ptr %18, align 4
  br label %102

58:                                               ; preds = %38
  br label %59

59:                                               ; preds = %58, %33
  %60 = load ptr, ptr %12, align 8, !tbaa !3
  %61 = load i32, ptr %13, align 4, !tbaa !11
  %62 = sext i32 %61 to i64
  %63 = getelementptr inbounds %struct.pmix_buffer_t, ptr %60, i64 %62
  %64 = getelementptr inbounds nuw %struct.pmix_buffer_t, ptr %63, i32 0, i32 2
  %65 = load ptr, ptr %64, align 8, !tbaa !119
  %66 = load i32, ptr %15, align 4, !tbaa !11
  %67 = sext i32 %66 to i64
  %68 = getelementptr inbounds i8, ptr %65, i64 %67
  %69 = load ptr, ptr %12, align 8, !tbaa !3
  %70 = load i32, ptr %13, align 4, !tbaa !11
  %71 = sext i32 %70 to i64
  %72 = getelementptr inbounds %struct.pmix_buffer_t, ptr %69, i64 %71
  %73 = getelementptr inbounds nuw %struct.pmix_buffer_t, ptr %72, i32 0, i32 3
  store ptr %68, ptr %73, align 8, !tbaa !120
  %74 = load ptr, ptr %12, align 8, !tbaa !3
  %75 = load i32, ptr %13, align 4, !tbaa !11
  %76 = sext i32 %75 to i64
  %77 = getelementptr inbounds %struct.pmix_buffer_t, ptr %74, i64 %76
  %78 = getelementptr inbounds nuw %struct.pmix_buffer_t, ptr %77, i32 0, i32 2
  %79 = load ptr, ptr %78, align 8, !tbaa !119
  %80 = load ptr, ptr %12, align 8, !tbaa !3
  %81 = load i32, ptr %13, align 4, !tbaa !11
  %82 = sext i32 %81 to i64
  %83 = getelementptr inbounds %struct.pmix_buffer_t, ptr %80, i64 %82
  %84 = getelementptr inbounds nuw %struct.pmix_buffer_t, ptr %83, i32 0, i32 4
  store ptr %79, ptr %84, align 8, !tbaa !37
  %85 = load i64, ptr %17, align 8, !tbaa !54
  %86 = load ptr, ptr %12, align 8, !tbaa !3
  %87 = load i32, ptr %13, align 4, !tbaa !11
  %88 = sext i32 %87 to i64
  %89 = getelementptr inbounds %struct.pmix_buffer_t, ptr %86, i64 %88
  %90 = getelementptr inbounds nuw %struct.pmix_buffer_t, ptr %89, i32 0, i32 5
  store i64 %85, ptr %90, align 8, !tbaa !121
  %91 = load i32, ptr %15, align 4, !tbaa !11
  %92 = sext i32 %91 to i64
  %93 = load ptr, ptr %12, align 8, !tbaa !3
  %94 = load i32, ptr %13, align 4, !tbaa !11
  %95 = sext i32 %94 to i64
  %96 = getelementptr inbounds %struct.pmix_buffer_t, ptr %93, i64 %95
  %97 = getelementptr inbounds nuw %struct.pmix_buffer_t, ptr %96, i32 0, i32 6
  store i64 %92, ptr %97, align 8, !tbaa !122
  br label %98

98:                                               ; preds = %59
  %99 = load i32, ptr %13, align 4, !tbaa !11
  %100 = add nsw i32 %99, 1
  store i32 %100, ptr %13, align 4, !tbaa !11
  br label %22, !llvm.loop !123

101:                                              ; preds = %22
  store i32 0, ptr %6, align 4
  store i32 1, ptr %18, align 4
  br label %102

102:                                              ; preds = %101, %56, %31
  call void @llvm.lifetime.end.p0(i64 8, ptr %17) #11
  call void @llvm.lifetime.end.p0(i64 4, ptr %16) #11
  call void @llvm.lifetime.end.p0(i64 4, ptr %15) #11
  call void @llvm.lifetime.end.p0(i64 4, ptr %14) #11
  call void @llvm.lifetime.end.p0(i64 4, ptr %13) #11
  call void @llvm.lifetime.end.p0(i64 8, ptr %12) #11
  %103 = load i32, ptr %6, align 4
  ret i32 %103
}