; Function Attrs: nounwind uwtable
define i32 @pmix20_bfrop_unpack_buf(ptr noundef %0, ptr noundef %1, ptr noundef captures(none) %2, ptr noundef readonly captures(none) %3, i16 noundef zeroext %4) local_unnamed_addr #0 {
  %6 = alloca i32, align 4
  %7 = alloca i64, align 8
  call void @llvm.lifetime.start.p0(i64 4, ptr nonnull %6) #10
  call void @llvm.lifetime.start.p0(i64 8, ptr nonnull %7) #10
  %8 = load i32, ptr %3, align 4, !tbaa !3
  %9 = icmp sgt i32 %8, 0
  br i1 %9, label %.lr.ph, label %pmix20_bfrop_unpack_byte.exit

.lr.ph:                                           ; preds = %5
  %10 = getelementptr inbounds nuw i8, ptr %1, i64 144
  %wide.trip.count = zext nneg i32 %8 to i64
  br label %11

11:                                               ; preds = %.lr.ph, %._crit_edge
  %indvars.iv = phi i64 [ 0, %.lr.ph ], [ %indvars.iv.next, %._crit_edge ]
  store i32 1, ptr %6, align 4, !tbaa !3
  %12 = call i32 @pmix20_bfrop_unpack_sizet(ptr noundef %0, ptr noundef %1, ptr noundef nonnull %7, ptr noundef nonnull %6, i16 zeroext poison)
  %.not = icmp eq i32 %12, 0
  br i1 %.not, label %13, label %pmix20_bfrop_unpack_byte.exit

13:                                               ; preds = %11
  %14 = load i64, ptr %7, align 8, !tbaa !44
  %15 = trunc i64 %14 to i32
  store i32 %15, ptr %6, align 4, !tbaa !3
  %.not31 = icmp eq i64 %14, 0
  br i1 %.not31, label %._crit_edge, label %16

16:                                               ; preds = %13
  %17 = call noalias ptr @malloc(i64 noundef %14) #12
  %18 = getelementptr inbounds nuw %struct.pmix_buffer_t, ptr %2, i64 %indvars.iv, i32 2
  store ptr %17, ptr %18, align 8, !tbaa !86
  %19 = load i32, ptr getelementptr inbounds nuw (i8, ptr @pmix_bfrops_base_framework, i64 76), align 4, !tbaa !7
  %or.cond.i = icmp ult i32 %19, 64
  br i1 %or.cond.i, label %20, label %26

20:                                               ; preds = %16
  %21 = zext nneg i32 %19 to i64
  %22 = getelementptr inbounds nuw [0 x %struct.pmix_output_desc_t], ptr @pmix_output_info, i64 0, i64 %21, i32 2
  %23 = load i32, ptr %22, align 4, !tbaa !19
  %24 = icmp sgt i32 %23, 19
  br i1 %24, label %25, label %26

25:                                               ; preds = %20
  call void (i32, ptr, ...) @pmix_output(i32 noundef %19, ptr noundef nonnull @.str.5, i32 noundef %15) #10
  %.pre = load i32, ptr %6, align 4, !tbaa !3
  br label %26

26:                                               ; preds = %25, %20, %16
  %27 = phi i32 [ %.pre, %25 ], [ %15, %20 ], [ %15, %16 ]
  %28 = sext i32 %27 to i64
  %29 = call zeroext i1 @pmix_bfrop_too_small(ptr noundef %1, i64 noundef %28) #10
  br i1 %29, label %pmix20_bfrop_unpack_byte.exit, label %pmix20_bfrop_unpack_byte.exit.thread

pmix20_bfrop_unpack_byte.exit.thread:             ; preds = %26
  %30 = load ptr, ptr %10, align 8, !tbaa !34
  %31 = load i32, ptr %6, align 4, !tbaa !3
  %32 = sext i32 %31 to i64
  call void @llvm.memcpy.p0.p0.i64(ptr align 1 %17, ptr align 1 %30, i64 %32, i1 false)
  %33 = getelementptr inbounds i8, ptr %30, i64 %32
  store ptr %33, ptr %10, align 8, !tbaa !34
  %.pre41 = load i64, ptr %7, align 8, !tbaa !44
  br label %._crit_edge

._crit_edge:                                      ; preds = %13, %pmix20_bfrop_unpack_byte.exit.thread
  %.pre-phi = phi i64 [ %32, %pmix20_bfrop_unpack_byte.exit.thread ], [ 0, %13 ]
  %34 = phi i64 [ %.pre41, %pmix20_bfrop_unpack_byte.exit.thread ], [ 0, %13 ]
  %35 = getelementptr inbounds nuw %struct.pmix_buffer_t, ptr %2, i64 %indvars.iv
  %36 = getelementptr inbounds nuw i8, ptr %35, i64 128
  %37 = load ptr, ptr %36, align 8, !tbaa !86
  %38 = getelementptr inbounds i8, ptr %37, i64 %.pre-phi
  %39 = getelementptr inbounds nuw i8, ptr %35, i64 136
  store ptr %38, ptr %39, align 8, !tbaa !87
  %40 = getelementptr inbounds nuw i8, ptr %35, i64 144
  store ptr %37, ptr %40, align 8, !tbaa !34
  %41 = getelementptr inbounds nuw i8, ptr %35, i64 152
  store i64 %34, ptr %41, align 8, !tbaa !88
  %42 = getelementptr inbounds nuw i8, ptr %35, i64 160
  store i64 %.pre-phi, ptr %42, align 8, !tbaa !89
  %indvars.iv.next = add nuw nsw i64 %indvars.iv, 1
  %exitcond.not = icmp eq i64 %indvars.iv.next, %wide.trip.count
  br i1 %exitcond.not, label %pmix20_bfrop_unpack_byte.exit, label %11, !llvm.loop !90

pmix20_bfrop_unpack_byte.exit:                    ; preds = %11, %._crit_edge, %26, %5
  %.0 = phi i32 [ 0, %5 ], [ -50, %26 ], [ 0, %._crit_edge ], [ %12, %11 ]
  call void @llvm.lifetime.end.p0(i64 8, ptr nonnull %7) #10
  call void @llvm.lifetime.end.p0(i64 4, ptr nonnull %6) #10
  ret i32 %.0
}